target datalayout = "e-m:e-p270:32:32-p271:32:32-p272:64:64-i64:64-i128:128-f80:128-n8:16:32:64-S128"
target triple = "x86_64-pc-linux-gnu"

%struct._object = type { %union.anon, ptr }
%union.anon = type { i64 }
%struct.Py_buffer = type { ptr, ptr, i64, i64, i32, i32, ptr, ptr, ptr, ptr, ptr }
%struct._typeobject = type { %struct.PyVarObject, ptr, i64, i64, ptr, i64, ptr, ptr, ptr, ptr, ptr, ptr, ptr, ptr, ptr, ptr, ptr, ptr, ptr, i64, ptr, ptr, ptr, ptr, i64, ptr, ptr, ptr, ptr, ptr, ptr, ptr, ptr, ptr, i64, ptr, ptr, ptr, ptr, ptr, ptr, ptr, ptr, ptr, ptr, ptr, i32, ptr, ptr, i8, i16 }
%struct.PyVarObject = type { %struct._object, i64 }

@_Py_NoneStruct = external global %struct._object, align 8
@PyExc_ValueError = external global ptr, align 8
@.str.58 = private unnamed_addr constant [12 x i8] c"pbkdf2_hmac\00", align 1
@.str.88 = private unnamed_addr constant [21 x i8] c"argument 'hash_name'\00", align 1
@.str.89 = private unnamed_addr constant [4 x i8] c"str\00", align 1
@.str.90 = private unnamed_addr constant [24 x i8] c"embedded null character\00", align 1

; Function Attrs: inlinehint nounwind uwtable
define internal i64 @Py_SIZE(ptr noundef %0) #4 {
  %2 = alloca ptr, align 8
  store ptr %0, ptr %2, align 8, !tbaa !14
  %3 = load ptr, ptr %2, align 8, !tbaa !14
  %4 = getelementptr inbounds nuw %struct.PyVarObject, ptr %3, i32 0, i32 1
  %5 = load i64, ptr %4, align 8, !tbaa !68
  ret i64 %5
}

; Function Attrs: inlinehint nounwind uwtable
define internal i32 @PyType_HasFeature(ptr noundef %0, i64 noundef %1) #4 {
  %3 = alloca ptr, align 8
  %4 = alloca i64, align 8
  %5 = alloca i64, align 8
  store ptr %0, ptr %3, align 8, !tbaa !16
  store i64 %1, ptr %4, align 8, !tbaa !32
  call void @llvm.lifetime.start.p0(i64 8, ptr %5) #9
  %6 = load ptr, ptr %3, align 8, !tbaa !16
  %7 = getelementptr inbounds nuw %struct._typeobject, ptr %6, i32 0, i32 19
  %8 = load i64, ptr %7, align 8, !tbaa !44
  store i64 %8, ptr %5, align 8, !tbaa !32
  %9 = load i64, ptr %5, align 8, !tbaa !32
  %10 = load i64, ptr %4, align 8, !tbaa !32
  %11 = and i64 %9, %10
  %12 = icmp ne i64 %11, 0
  %13 = zext i1 %12 to i32
  call void @llvm.lifetime.end.p0(i64 8, ptr %5) #9
  ret i32 %13
}

; Function Attrs: inlinehint nounwind uwtable
define internal ptr @_Py_TYPE(ptr noundef %0) #4 {
  %2 = alloca ptr, align 8
  store ptr %0, ptr %2, align 8, !tbaa !14
  %3 = load ptr, ptr %2, align 8, !tbaa !14
  %4 = getelementptr inbounds nuw %struct._object, ptr %3, i32 0, i32 1
  %5 = load ptr, ptr %4, align 8, !tbaa !29
  ret ptr %5
}

; Function Attrs: inlinehint nounwind uwtable
define internal i64 @PyTuple_GET_SIZE(ptr noundef %0) #4 {
  %2 = alloca ptr, align 8
  %3 = alloca ptr, align 8
  store ptr %0, ptr %2, align 8, !tbaa !14
  call void @llvm.lifetime.start.p0(i64 8, ptr %3) #9
  %4 = load ptr, ptr %2, align 8, !tbaa !14
  store ptr %4, ptr %3, align 8, !tbaa !3
  %5 = load ptr, ptr %3, align 8, !tbaa !3
  %6 = call i64 @Py_SIZE(ptr noundef %5)
  call void @llvm.lifetime.end.p0(i64 8, ptr %3) #9
  ret i64 %6
}

; Function Attrs: nounwind uwtable
define internal ptr @pbkdf2_hmac(ptr noundef %0, ptr noundef %1, i64 noundef %2, ptr noundef %3) #0 {
  %5 = alloca ptr, align 8
  %6 = alloca ptr, align 8
  %7 = alloca i64, align 8
  %8 = alloca ptr, align 8
  %9 = alloca ptr, align 8
  %10 = alloca [5 x ptr], align 16
  %11 = alloca i64, align 8
  %12 = alloca ptr, align 8
  %13 = alloca %struct.Py_buffer, align 8
  %14 = alloca %struct.Py_buffer, align 8
  %15 = alloca i64, align 8
  %16 = alloca ptr, align 8
  %17 = alloca i64, align 8
  store ptr %0, ptr %5, align 8, !tbaa !14
  store ptr %1, ptr %6, align 8, !tbaa !30
  store i64 %2, ptr %7, align 8, !tbaa !32
  store ptr %3, ptr %8, align 8, !tbaa !14
  call void @llvm.lifetime.start.p0(i64 8, ptr %9) #9
  store ptr null, ptr %9, align 8, !tbaa !14
  call void @llvm.lifetime.start.p0(i64 40, ptr %10) #9
  call void @llvm.lifetime.start.p0(i64 8, ptr %11) #9
  %18 = load i64, ptr %7, align 8, !tbaa !32
  %19 = load ptr, ptr %8, align 8, !tbaa !14
  %20 = icmp ne ptr %19, null
  br i1 %20, label %21, label %24

21:                                               ; preds = %4
  %22 = load ptr, ptr %8, align 8, !tbaa !14
  %23 = call i64 @PyTuple_GET_SIZE(ptr noundef %22)
  br label %25

24:                                               ; preds = %4
  br label %25

25:                                               ; preds = %24, %21
  %26 = phi i64 [ %23, %21 ], [ 0, %24 ]
  %27 = add i64 %18, %26
  %28 = sub i64 %27, 4
  store i64 %28, ptr %11, align 8, !tbaa !32
  call void @llvm.lifetime.start.p0(i64 8, ptr %12) #9
  call void @llvm.lifetime.start.p0(i64 80, ptr %13) #9
  call void @llvm.memset.p0.i64(ptr align 8 %13, i8 0, i64 80, i1 false)
  call void @llvm.lifetime.start.p0(i64 80, ptr %14) #9
  call void @llvm.memset.p0.i64(ptr align 8 %14, i8 0, i64 80, i1 false)
  call void @llvm.lifetime.start.p0(i64 8, ptr %15) #9
  call void @llvm.lifetime.start.p0(i64 8, ptr %16) #9
  store ptr @_Py_NoneStruct, ptr %16, align 8, !tbaa !14
  %29 = load ptr, ptr %8, align 8, !tbaa !14
  %30 = icmp eq ptr %29, null
  br i1 %30, label %31, label %42

31:                                               ; preds = %25
  %32 = load i64, ptr %7, align 8, !tbaa !32
  %33 = icmp sle i64 4, %32
  br i1 %33, label %34, label %42

34:                                               ; preds = %31
  %35 = load i64, ptr %7, align 8, !tbaa !32
  %36 = icmp sle i64 %35, 5
  br i1 %36, label %37, label %42

37:                                               ; preds = %34
  %38 = load ptr, ptr %6, align 8, !tbaa !30
  %39 = icmp ne ptr %38, null
  br i1 %39, label %40, label %42

40:                                               ; preds = %37
  %41 = load ptr, ptr %6, align 8, !tbaa !30
  br label %48

42:                                               ; preds = %37, %34, %31, %25
  %43 = load ptr, ptr %6, align 8, !tbaa !30
  %44 = load i64, ptr %7, align 8, !tbaa !32
  %45 = load ptr, ptr %8, align 8, !tbaa !14
  %46 = getelementptr inbounds [5 x ptr], ptr %10, i64 0, i64 0
  %47 = call ptr @_PyArg_UnpackKeywords(ptr noundef %43, i64 noundef %44, ptr noundef null, ptr noundef %45, ptr noundef @pbkdf2_hmac._parser, i32 noundef 4, i32 noundef 5, i32 noundef 0, i32 noundef 0, ptr noundef %46)
  br label %48

48:                                               ; preds = %42, %40
  %49 = phi ptr [ %41, %40 ], [ %47, %42 ]
  store ptr %49, ptr %6, align 8, !tbaa !30
  %50 = load ptr, ptr %6, align 8, !tbaa !30
  %51 = icmp ne ptr %50, null
  br i1 %51, label %53, label %52

52:                                               ; preds = %48
  br label %118

53:                                               ; preds = %48
  %54 = load ptr, ptr %6, align 8, !tbaa !30
  %55 = getelementptr ptr, ptr %54, i64 0
  %56 = load ptr, ptr %55, align 8, !tbaa !14
  %57 = call ptr @_Py_TYPE(ptr noundef %56)
  %58 = call i32 @PyType_HasFeature(ptr noundef %57, i64 noundef 268435456)
  %59 = icmp ne i32 %58, 0
  br i1 %59, label %64, label %60

60:                                               ; preds = %53
  %61 = load ptr, ptr %6, align 8, !tbaa !30
  %62 = getelementptr ptr, ptr %61, i64 0
  %63 = load ptr, ptr %62, align 8, !tbaa !14
  call void @_PyArg_BadArgument(ptr noundef @.str.58, ptr noundef @.str.88, ptr noundef @.str.89, ptr noundef %63)
  br label %118

64:                                               ; preds = %53
  %65 = load ptr, ptr %6, align 8, !tbaa !30
  %66 = getelementptr ptr, ptr %65, i64 0
  %67 = load ptr, ptr %66, align 8, !tbaa !14
  %68 = call ptr @PyUnicode_AsUTF8AndSize(ptr noundef %67, ptr noundef %17)
  store ptr %68, ptr %12, align 8, !tbaa !21
  %69 = load ptr, ptr %12, align 8, !tbaa !21
  %70 = icmp eq ptr %69, null
  br i1 %70, label %71, label %72

71:                                               ; preds = %64
  br label %118

72:                                               ; preds = %64
  %73 = load ptr, ptr %12, align 8, !tbaa !21
  %74 = call i64 @strlen(ptr noundef %73) #10
  %75 = load i64, ptr %17, align 8, !tbaa !32
  %76 = icmp ne i64 %74, %75
  br i1 %76, label %77, label %79

77:                                               ; preds = %72
  %78 = load ptr, ptr @PyExc_ValueError, align 8, !tbaa !14
  call void @PyErr_SetString(ptr noundef %78, ptr noundef @.str.90)
  br label %118

79:                                               ; preds = %72
  %80 = load ptr, ptr %6, align 8, !tbaa !30
  %81 = getelementptr ptr, ptr %80, i64 1
  %82 = load ptr, ptr %81, align 8, !tbaa !14
  %83 = call i32 @PyObject_GetBuffer(ptr noundef %82, ptr noundef %13, i32 noundef 0)
  %84 = icmp ne i32 %83, 0
  br i1 %84, label %85, label %86

85:                                               ; preds = %79
  br label %118

86:                                               ; preds = %79
  %87 = load ptr, ptr %6, align 8, !tbaa !30
  %88 = getelementptr ptr, ptr %87, i64 2
  %89 = load ptr, ptr %88, align 8, !tbaa !14
  %90 = call i32 @PyObject_GetBuffer(ptr noundef %89, ptr noundef %14, i32 noundef 0)
  %91 = icmp ne i32 %90, 0
  br i1 %91, label %92, label %93

92:                                               ; preds = %86
  br label %118

93:                                               ; preds = %86
  %94 = load ptr, ptr %6, align 8, !tbaa !30
  %95 = getelementptr ptr, ptr %94, i64 3
  %96 = load ptr, ptr %95, align 8, !tbaa !14
  %97 = call i64 @PyLong_AsLong(ptr noundef %96)
  store i64 %97, ptr %15, align 8, !tbaa !32
  %98 = load i64, ptr %15, align 8, !tbaa !32
  %99 = icmp eq i64 %98, -1
  br i1 %99, label %100, label %104

100:                                              ; preds = %93
  %101 = call ptr @PyErr_Occurred()
  %102 = icmp ne ptr %101, null
  br i1 %102, label %103, label %104

103:                                              ; preds = %100
  br label %118

104:                                              ; preds = %100, %93
  %105 = load i64, ptr %11, align 8, !tbaa !32
  %106 = icmp ne i64 %105, 0
  br i1 %106, label %108, label %107

107:                                              ; preds = %104
  br label %112

108:                                              ; preds = %104
  %109 = load ptr, ptr %6, align 8, !tbaa !30
  %110 = getelementptr ptr, ptr %109, i64 4
  %111 = load ptr, ptr %110, align 8, !tbaa !14
  store ptr %111, ptr %16, align 8, !tbaa !14
  br label %112

112:                                              ; preds = %108, %107
  %113 = load ptr, ptr %5, align 8, !tbaa !14
  %114 = load ptr, ptr %12, align 8, !tbaa !21
  %115 = load i64, ptr %15, align 8, !tbaa !32
  %116 = load ptr, ptr %16, align 8, !tbaa !14
  %117 = call ptr @pbkdf2_hmac_impl(ptr noundef %113, ptr noundef %114, ptr noundef %13, ptr noundef %14, i64 noundef %115, ptr noundef %116)
  store ptr %117, ptr %9, align 8, !tbaa !14
  br label %118

118:                                              ; preds = %112, %103, %92, %85, %77, %71, %60, %52
  %119 = getelementptr inbounds nuw %struct.Py_buffer, ptr %13, i32 0, i32 1
  %120 = load ptr, ptr %119, align 8, !tbaa !67
  %121 = icmp ne ptr %120, null
  br i1 %121, label %122, label %123

122:                                              ; preds = %118
  call void @PyBuffer_Release(ptr noundef %13)
  br label %123

123:                                              ; preds = %122, %118
  %124 = getelementptr inbounds nuw %struct.Py_buffer, ptr %14, i32 0, i32 1
  %125 = load ptr, ptr %124, align 8, !tbaa !67
  %126 = icmp ne ptr %125, null
  br i1 %126, label %127, label %128

127:                                              ; preds = %123
  call void @PyBuffer_Release(ptr noundef %14)
  br label %128

128:                                              ; preds = %127, %123
  %129 = load ptr, ptr %9, align 8, !tbaa !14
  call void @llvm.lifetime.end.p0(i64 8, ptr %16) #9
  call void @llvm.lifetime.end.p0(i64 8, ptr %15) #9
  call void @llvm.lifetime.end.p0(i64 80, ptr %14) #9
  call void @llvm.lifetime.end.p0(i64 80, ptr %13) #9
  call void @llvm.lifetime.end.p0(i64 8, ptr %12) #9
  call void @llvm.lifetime.end.p0(i64 8, ptr %11) #9
  call void @llvm.lifetime.end.p0(i64 40, ptr %10) #9
  call void @llvm.lifetime.end.p0(i64 8, ptr %9) #9
  ret ptr %129
}