; Function Attrs: nounwind uwtable
define internal ptr @pbkdf2_hmac(ptr noundef %0, ptr noundef %1, i64 noundef %2, ptr noundef %3) #0 {
  %5 = alloca [5 x ptr], align 16
  %6 = alloca %struct.Py_buffer, align 8
  %7 = alloca %struct.Py_buffer, align 8
  %8 = alloca i64, align 8
  call void @llvm.lifetime.start.p0(i64 40, ptr nonnull %5) #9
  %.not = icmp eq ptr %3, null
  br i1 %.not, label %11, label %9

9:                                                ; preds = %4
  %10 = getelementptr i8, ptr %3, i64 16
  %.val47 = load i64, ptr %10, align 8, !tbaa !51
  br label %11

11:                                               ; preds = %4, %9
  %12 = phi i64 [ %.val47, %9 ], [ 0, %4 ]
  %13 = add i64 %12, %2
  call void @llvm.lifetime.start.p0(i64 80, ptr nonnull %6) #9
  call void @llvm.memset.p0.i64(ptr noundef nonnull align 8 dereferenceable(80) %6, i8 0, i64 80, i1 false)
  call void @llvm.lifetime.start.p0(i64 80, ptr nonnull %7) #9
  call void @llvm.memset.p0.i64(ptr noundef nonnull align 8 dereferenceable(80) %7, i8 0, i64 80, i1 false)
  %14 = and i64 %2, -2
  %15 = icmp eq i64 %14, 4
  %16 = icmp ne ptr %1, null
  %17 = and i1 %16, %15
  %or.cond5 = and i1 %.not, %17
  br i1 %or.cond5, label %.thread, label %18

18:                                               ; preds = %11
  %19 = call ptr @_PyArg_UnpackKeywords(ptr noundef %1, i64 noundef %2, ptr noundef null, ptr noundef %3, ptr noundef nonnull @pbkdf2_hmac._parser, i32 noundef 4, i32 noundef 5, i32 noundef 0, i32 noundef 0, ptr noundef nonnull %5) #9
  %.not37 = icmp eq ptr %19, null
  br i1 %.not37, label %55, label %.thread

.thread:                                          ; preds = %11, %18
  %20 = phi ptr [ %19, %18 ], [ %1, %11 ]
  %21 = load ptr, ptr %20, align 8, !tbaa !23
  %22 = getelementptr i8, ptr %21, i64 8
  %.val = load ptr, ptr %22, align 8, !tbaa !22
  %23 = getelementptr i8, ptr %.val, i64 168
  %.val46 = load i64, ptr %23, align 8, !tbaa !28
  %24 = and i64 %.val46, 268435456
  %.not38 = icmp eq i64 %24, 0
  br i1 %.not38, label %25, label %26

25:                                               ; preds = %.thread
  call void @_PyArg_BadArgument(ptr noundef nonnull @.str.58, ptr noundef nonnull @.str.88, ptr noundef nonnull @.str.89, ptr noundef nonnull %21) #9
  br label %55

26:                                               ; preds = %.thread
  %27 = call ptr @PyUnicode_AsUTF8AndSize(ptr noundef nonnull %21, ptr noundef nonnull %8) #9
  %28 = icmp eq ptr %27, null
  br i1 %28, label %55, label %29

29:                                               ; preds = %26
  %30 = call i64 @strlen(ptr noundef nonnull dereferenceable(1) %27) #10
  %31 = load i64, ptr %8, align 8, !tbaa !53
  %.not39 = icmp eq i64 %30, %31
  br i1 %.not39, label %34, label %32

32:                                               ; preds = %29
  %33 = load ptr, ptr @PyExc_ValueError, align 8, !tbaa !23
  call void @PyErr_SetString(ptr noundef %33, ptr noundef nonnull @.str.90) #9
  br label %55

34:                                               ; preds = %29
  %35 = getelementptr i8, ptr %20, i64 8
  %36 = load ptr, ptr %35, align 8, !tbaa !23
  %37 = call i32 @PyObject_GetBuffer(ptr noundef %36, ptr noundef nonnull %6, i32 noundef 0) #9
  %.not40 = icmp eq i32 %37, 0
  br i1 %.not40, label %38, label %55

38:                                               ; preds = %34
  %39 = getelementptr i8, ptr %20, i64 16
  %40 = load ptr, ptr %39, align 8, !tbaa !23
  %41 = call i32 @PyObject_GetBuffer(ptr noundef %40, ptr noundef nonnull %7, i32 noundef 0) #9
  %.not41 = icmp eq i32 %41, 0
  br i1 %.not41, label %42, label %55

42:                                               ; preds = %38
  %43 = getelementptr i8, ptr %20, i64 24
  %44 = load ptr, ptr %43, align 8, !tbaa !23
  %45 = call i64 @PyLong_AsLong(ptr noundef %44) #9
  %46 = icmp eq i64 %45, -1
  br i1 %46, label %47, label %49

47:                                               ; preds = %42
  %48 = call ptr @PyErr_Occurred() #9
  %.not42 = icmp eq ptr %48, null
  br i1 %.not42, label %49, label %55

49:                                               ; preds = %47, %42
  %.not43 = icmp eq i64 %13, 4
  br i1 %.not43, label %53, label %50

50:                                               ; preds = %49
  %51 = getelementptr i8, ptr %20, i64 32
  %52 = load ptr, ptr %51, align 8, !tbaa !23
  br label %53

53:                                               ; preds = %49, %50
  %.0 = phi ptr [ %52, %50 ], [ @_Py_NoneStruct, %49 ]
  %54 = call fastcc ptr @pbkdf2_hmac_impl(ptr noundef %0, ptr noundef %27, ptr noundef %6, ptr noundef %7, i64 noundef %45, ptr noundef %.0)
  br label %55

55:                                               ; preds = %47, %38, %34, %26, %18, %53, %32, %25
  %.032 = phi ptr [ null, %26 ], [ null, %32 ], [ null, %34 ], [ null, %38 ], [ null, %47 ], [ %54, %53 ], [ null, %25 ], [ null, %18 ]
  %56 = getelementptr inbounds nuw i8, ptr %6, i64 8
  %57 = load ptr, ptr %56, align 8, !tbaa !54
  %.not44 = icmp eq ptr %57, null
  br i1 %.not44, label %59, label %58

58:                                               ; preds = %55
  call void @PyBuffer_Release(ptr noundef nonnull %6) #9
  br label %59

59:                                               ; preds = %58, %55
  %60 = getelementptr inbounds nuw i8, ptr %7, i64 8
  %61 = load ptr, ptr %60, align 8, !tbaa !54
  %.not45 = icmp eq ptr %61, null
  br i1 %.not45, label %63, label %62

62:                                               ; preds = %59
  call void @PyBuffer_Release(ptr noundef nonnull %7) #9
  br label %63

63:                                               ; preds = %62, %59
  call void @llvm.lifetime.end.p0(i64 80, ptr nonnull %7) #9
  call void @llvm.lifetime.end.p0(i64 80, ptr nonnull %6) #9
  call void @llvm.lifetime.end.p0(i64 40, ptr nonnull %5) #9
  ret ptr %.032
}